target datalayout = "e-m:e-p270:32:32-p271:32:32-p272:64:64-i64:64-i128:128-f80:128-n8:16:32:64-S128"
target triple = "x86_64-unknown-linux-gnu"

%class.params_ref = type { ptr }
%"class.qe::mbproj" = type { ptr }

@.str.10 = private unnamed_addr constant [19 x i8] c"reduce_all_selects\00", align 1
@.str.11 = private unnamed_addr constant [9 x i8] c"dont_sub\00", align 1

; Function Attrs: mustprogress nounwind uwtable
define linkonce_odr hidden void @_ZN10params_refC2Ev(ptr noundef nonnull align 8 dereferenceable(8) %this) unnamed_addr #5 comdat align 2 {
entry:
  %this.addr = alloca ptr, align 8
  store ptr %this, ptr %this.addr, align 8
  %this1 = load ptr, ptr %this.addr, align 8
  %m_params = getelementptr inbounds %class.params_ref, ptr %this1, i32 0, i32 0
  store ptr null, ptr %m_params, align 8
  ret void
}

; Function Attrs: mustprogress uwtable
define hidden void @_ZN6spacer13qe_project_z3ER11ast_managerR10ref_vectorI3appS0_ER7obj_refI4exprS0_ER5modelbbb(ptr noundef nonnull align 8 dereferenceable(976) %m, ptr noundef nonnull align 8 dereferenceable(16) %vars, ptr noundef nonnull align 8 dereferenceable(16) %fml, ptr noundef nonnull align 8 dereferenceable(160) %mdl, i1 noundef zeroext %reduce_all_selects, i1 noundef zeroext %use_native_mbp, i1 noundef zeroext %dont_sub) #4 personality ptr @__gxx_personality_v0 {
entry:
  %m.addr = alloca ptr, align 8
  %vars.addr = alloca ptr, align 8
  %fml.addr = alloca ptr, align 8
  %mdl.addr = alloca ptr, align 8
  %reduce_all_selects.addr = alloca i8, align 1
  %use_native_mbp.addr = alloca i8, align 1
  %dont_sub.addr = alloca i8, align 1
  %p = alloca %class.params_ref, align 8
  %exn.slot = alloca ptr, align 8
  %ehselector.slot = alloca i32, align 4
  %mbp = alloca %"class.qe::mbproj", align 8
  store ptr %m, ptr %m.addr, align 8
  store ptr %vars, ptr %vars.addr, align 8
  store ptr %fml, ptr %fml.addr, align 8
  store ptr %mdl, ptr %mdl.addr, align 8
  %frombool = zext i1 %reduce_all_selects to i8
  store i8 %frombool, ptr %reduce_all_selects.addr, align 1
  %frombool1 = zext i1 %use_native_mbp to i8
  store i8 %frombool1, ptr %use_native_mbp.addr, align 1
  %frombool2 = zext i1 %dont_sub to i8
  store i8 %frombool2, ptr %dont_sub.addr, align 1
  call void @_ZN10params_refC2Ev(ptr noundef nonnull align 8 dereferenceable(8) %p)
  %0 = load i8, ptr %reduce_all_selects.addr, align 1
  %tobool = trunc i8 %0 to i1
  invoke void @_ZN10params_ref8set_boolEPKcb(ptr noundef nonnull align 8 dereferenceable(8) %p, ptr noundef @.str.10, i1 noundef zeroext %tobool)
          to label %invoke.cont unwind label %lpad

invoke.cont:                                      ; preds = %entry
  %1 = load i8, ptr %dont_sub.addr, align 1
  %tobool3 = trunc i8 %1 to i1
  invoke void @_ZN10params_ref8set_boolEPKcb(ptr noundef nonnull align 8 dereferenceable(8) %p, ptr noundef @.str.11, i1 noundef zeroext %tobool3)
          to label %invoke.cont4 unwind label %lpad

invoke.cont4:                                     ; preds = %invoke.cont
  %2 = load ptr, ptr %m.addr, align 8
  invoke void @_ZN2qe6mbprojC1ER11ast_managerRK10params_ref(ptr noundef nonnull align 8 dereferenceable(8) %mbp, ptr noundef nonnull align 8 dereferenceable(976) %2, ptr noundef nonnull align 8 dereferenceable(8) %p)
          to label %invoke.cont5 unwind label %lpad

invoke.cont5:                                     ; preds = %invoke.cont4
  %3 = load ptr, ptr %vars.addr, align 8
  %4 = load ptr, ptr %mdl.addr, align 8
  %5 = load ptr, ptr %fml.addr, align 8
  invoke void @_ZN2qe6mbproj6spacerER10ref_vectorI3app11ast_managerER5modelR7obj_refI4exprS3_E(ptr noundef nonnull align 8 dereferenceable(8) %mbp, ptr noundef nonnull align 8 dereferenceable(16) %3, ptr noundef nonnull align 8 dereferenceable(160) %4, ptr noundef nonnull align 8 dereferenceable(16) %5)
          to label %invoke.cont7 unwind label %lpad6

invoke.cont7:                                     ; preds = %invoke.cont5
  call void @_ZN2qe6mbprojD1Ev(ptr noundef nonnull align 8 dereferenceable(8) %mbp) #3
  call void @_ZN10params_refD1Ev(ptr noundef nonnull align 8 dereferenceable(8) %p) #3
  ret void

lpad:                                             ; preds = %invoke.cont4, %invoke.cont, %entry
  %6 = landingpad { ptr, i32 }
          cleanup
  %7 = extractvalue { ptr, i32 } %6, 0
  store ptr %7, ptr %exn.slot, align 8
  %8 = extractvalue { ptr, i32 } %6, 1
  store i32 %8, ptr %ehselector.slot, align 4
  br label %ehcleanup

lpad6:                                            ; preds = %invoke.cont5
  %9 = landingpad { ptr, i32 }
          cleanup
  %10 = extractvalue { ptr, i32 } %9, 0
  store ptr %10, ptr %exn.slot, align 8
  %11 = extractvalue { ptr, i32 } %9, 1
  store i32 %11, ptr %ehselector.slot, align 4
  call void @_ZN2qe6mbprojD1Ev(ptr noundef nonnull align 8 dereferenceable(8) %mbp) #3
  br label %ehcleanup

ehcleanup:                                        ; preds = %lpad6, %lpad
  call void @_ZN10params_refD1Ev(ptr noundef nonnull align 8 dereferenceable(8) %p) #3
  br label %eh.resume

eh.resume:                                        ; preds = %ehcleanup
  %exn = load ptr, ptr %exn.slot, align 8
  %sel = load i32, ptr %ehselector.slot, align 4
  %lpad.val = insertvalue { ptr, i32 } poison, ptr %exn, 0
  %lpad.val8 = insertvalue { ptr, i32 } %lpad.val, i32 %sel, 1
  resume { ptr, i32 } %lpad.val8
}