; Function Attrs: mustprogress uwtable
define hidden void @_ZN6spacer13qe_project_z3ER11ast_managerR10ref_vectorI3appS0_ER7obj_refI4exprS0_ER5modelbbb(ptr noundef nonnull align 8 dereferenceable(976) %m, ptr noundef nonnull align 8 dereferenceable(16) %vars, ptr noundef nonnull align 8 dereferenceable(16) %fml, ptr noundef nonnull align 8 dereferenceable(160) %mdl, i1 noundef zeroext %reduce_all_selects, i1 zeroext %use_native_mbp, i1 noundef zeroext %dont_sub) local_unnamed_addr #3 personality ptr @__gxx_personality_v0 {
entry:
  %p = alloca %class.params_ref, align 8
  %mbp = alloca %"class.qe::mbproj", align 8
  store ptr null, ptr %p, align 8
  invoke void @_ZN10params_ref8set_boolEPKcb(ptr noundef nonnull align 8 dereferenceable(8) %p, ptr noundef nonnull @.str.10, i1 noundef zeroext %reduce_all_selects)
          to label %invoke.cont unwind label %lpad

invoke.cont:                                      ; preds = %entry
  invoke void @_ZN10params_ref8set_boolEPKcb(ptr noundef nonnull align 8 dereferenceable(8) %p, ptr noundef nonnull @.str.11, i1 noundef zeroext %dont_sub)
          to label %invoke.cont4 unwind label %lpad

invoke.cont4:                                     ; preds = %invoke.cont
  invoke void @_ZN2qe6mbprojC1ER11ast_managerRK10params_ref(ptr noundef nonnull align 8 dereferenceable(8) %mbp, ptr noundef nonnull align 8 dereferenceable(976) %m, ptr noundef nonnull align 8 dereferenceable(8) %p)
          to label %invoke.cont5 unwind label %lpad

invoke.cont5:                                     ; preds = %invoke.cont4
  invoke void @_ZN2qe6mbproj6spacerER10ref_vectorI3app11ast_managerER5modelR7obj_refI4exprS3_E(ptr noundef nonnull align 8 dereferenceable(8) %mbp, ptr noundef nonnull align 8 dereferenceable(16) %vars, ptr noundef nonnull align 8 dereferenceable(160) %mdl, ptr noundef nonnull align 8 dereferenceable(16) %fml)
          to label %invoke.cont7 unwind label %lpad6

invoke.cont7:                                     ; preds = %invoke.cont5
  call void @_ZN2qe6mbprojD1Ev(ptr noundef nonnull align 8 dereferenceable(8) %mbp) #20
  call void @_ZN10params_refD1Ev(ptr noundef nonnull align 8 dereferenceable(8) %p) #20
  ret void

lpad:                                             ; preds = %invoke.cont4, %invoke.cont, %entry
  %0 = landingpad { ptr, i32 }
          cleanup
  br label %ehcleanup

lpad6:                                            ; preds = %invoke.cont5
  %1 = landingpad { ptr, i32 }
          cleanup
  call void @_ZN2qe6mbprojD1Ev(ptr noundef nonnull align 8 dereferenceable(8) %mbp) #20
  br label %ehcleanup

ehcleanup:                                        ; preds = %lpad6, %lpad
  %.pn = phi { ptr, i32 } [ %1, %lpad6 ], [ %0, %lpad ]
  call void @_ZN10params_refD1Ev(ptr noundef nonnull align 8 dereferenceable(8) %p) #20
  resume { ptr, i32 } %.pn
}